target datalayout = "e-m:e-p270:32:32-p271:32:32-p272:64:64-i64:64-i128:128-f80:128-n8:16:32:64-S128"
target triple = "x86_64-pc-linux-gnu"

%struct.AVPacket = type { ptr, i64, i64, ptr, i32, i32, i32, ptr, i32, i64, i64, ptr, ptr, %struct.AVRational }
%struct.AVRational = type { i32, i32 }
%struct.AVStream = type { ptr, i32, i32, ptr, ptr, %struct.AVRational, i64, i64, i64, i32, i32, %struct.AVRational, ptr, %struct.AVRational, %struct.AVPacket, i32, %struct.AVRational, i32 }
%struct.AVFormatContext = type { ptr, ptr, ptr, ptr, ptr, i32, i32, ptr, i32, ptr, i32, ptr, ptr, i64, i64, i64, i32, i32, i32, i64, i64, ptr, i32, i32, ptr, i32, i32, i32, i32, ptr, i64, i32, i32, %struct.AVIOInterruptCB, i32, i32, i32, i32, i64, i32, i32, i32, i32, i32, i32, i32, i32, i32, i32, i32, i32, i64, i32, i32, i32, i32, i32, ptr, ptr, ptr, ptr, i32, ptr, ptr, ptr, ptr, i32, ptr, ptr, i64, ptr, ptr, ptr, i64 }
%struct.AVIOInterruptCB = type { ptr, ptr }
%struct.MpegTSWrite = type { ptr, %struct.MpegTSSection, %struct.MpegTSSection, %struct.MpegTSSection, ptr, ptr, i64, i64, i64, i32, i64, i32, i64, i32, i32, i64, i32, i32, i32, i32, i32, i32, i32, i32, i32, i32, i32, i32, i32, i32, i32, i64, i64, i64, i64, i64, i64, [256 x i8], i32 }
%struct.MpegTSSection = type { i32, i32, i32, ptr, ptr }
%struct.MpegTSWriteStream = type { i32, i32, i32, i32, i32, i32, i64, i64, i32, ptr, ptr, i32, i64, i64, i32, i32, ptr }

; Function Attrs: alwaysinline nounwind willreturn memory(none) uwtable
define internal i32 @av_bswap32(i32 noundef %0) #1 {
  %2 = alloca i32, align 4
  store i32 %0, ptr %2, align 4, !tbaa !59
  %3 = load i32, ptr %2, align 4, !tbaa !59
  %4 = shl i32 %3, 8
  %5 = and i32 %4, 65280
  %6 = load i32, ptr %2, align 4, !tbaa !59
  %7 = lshr i32 %6, 8
  %8 = and i32 %7, 255
  %9 = or i32 %5, %8
  %10 = shl i32 %9, 16
  %11 = load i32, ptr %2, align 4, !tbaa !59
  %12 = lshr i32 %11, 16
  %13 = shl i32 %12, 8
  %14 = and i32 %13, 65280
  %15 = load i32, ptr %2, align 4, !tbaa !59
  %16 = lshr i32 %15, 16
  %17 = lshr i32 %16, 8
  %18 = and i32 %17, 255
  %19 = or i32 %14, %18
  %20 = or i32 %10, %19
  ret i32 %20
}

; Function Attrs: nounwind uwtable
define internal void @write_packet(ptr noundef %0, ptr noundef %1) #0 {
  %3 = alloca ptr, align 8
  %4 = alloca ptr, align 8
  %5 = alloca ptr, align 8
  %6 = alloca i64, align 8
  %7 = alloca i32, align 4
  store ptr %0, ptr %3, align 8, !tbaa !4
  store ptr %1, ptr %4, align 8, !tbaa !13
  call void @llvm.lifetime.start.p0(i64 8, ptr %5) #13
  %8 = load ptr, ptr %3, align 8, !tbaa !4
  %9 = getelementptr inbounds nuw %struct.AVFormatContext, ptr %8, i32 0, i32 3
  %10 = load ptr, ptr %9, align 8, !tbaa !41
  store ptr %10, ptr %5, align 8, !tbaa !42
  %11 = load ptr, ptr %5, align 8, !tbaa !42
  %12 = getelementptr inbounds nuw %struct.MpegTSWrite, ptr %11, i32 0, i32 22
  %13 = load i32, ptr %12, align 8, !tbaa !44
  %14 = icmp ne i32 %13, 0
  br i1 %14, label %15, label %28

15:                                               ; preds = %2
  call void @llvm.lifetime.start.p0(i64 8, ptr %6) #13
  %16 = load ptr, ptr %3, align 8, !tbaa !4
  %17 = getelementptr inbounds nuw %struct.AVFormatContext, ptr %16, i32 0, i32 3
  %18 = load ptr, ptr %17, align 8, !tbaa !41
  %19 = call i64 @get_pcr(ptr noundef %18)
  store i64 %19, ptr %6, align 8, !tbaa !160
  call void @llvm.lifetime.start.p0(i64 4, ptr %7) #13
  %20 = load i64, ptr %6, align 8, !tbaa !160
  %21 = srem i64 %20, 1073741823
  %22 = trunc i64 %21 to i32
  store i32 %22, ptr %7, align 4, !tbaa !59
  %23 = load i32, ptr %7, align 4, !tbaa !23
  %24 = call i32 @av_bswap32(i32 noundef %23) #12
  store i32 %24, ptr %7, align 4, !tbaa !59
  %25 = load ptr, ptr %3, align 8, !tbaa !4
  %26 = getelementptr inbounds nuw %struct.AVFormatContext, ptr %25, i32 0, i32 4
  %27 = load ptr, ptr %26, align 8, !tbaa !29
  call void @avio_write(ptr noundef %27, ptr noundef %7, i32 noundef 4)
  call void @llvm.lifetime.end.p0(i64 4, ptr %7) #13
  call void @llvm.lifetime.end.p0(i64 8, ptr %6) #13
  br label %28

28:                                               ; preds = %15, %2
  %29 = load ptr, ptr %3, align 8, !tbaa !4
  %30 = getelementptr inbounds nuw %struct.AVFormatContext, ptr %29, i32 0, i32 4
  %31 = load ptr, ptr %30, align 8, !tbaa !29
  %32 = load ptr, ptr %4, align 8, !tbaa !13
  call void @avio_write(ptr noundef %31, ptr noundef %32, i32 noundef 188)
  %33 = load ptr, ptr %5, align 8, !tbaa !42
  %34 = getelementptr inbounds nuw %struct.MpegTSWrite, ptr %33, i32 0, i32 15
  %35 = load i64, ptr %34, align 8, !tbaa !195
  %36 = add nsw i64 %35, 188
  store i64 %36, ptr %34, align 8, !tbaa !195
  call void @llvm.lifetime.end.p0(i64 8, ptr %5) #13
  ret void
}

; Function Attrs: nounwind uwtable
define internal i32 @write_pcr_bits(ptr noundef %0, i64 noundef %1) #0 {
  %3 = alloca ptr, align 8
  %4 = alloca i64, align 8
  %5 = alloca i64, align 8
  %6 = alloca i64, align 8
  store ptr %0, ptr %3, align 8, !tbaa !13
  store i64 %1, ptr %4, align 8, !tbaa !160
  call void @llvm.lifetime.start.p0(i64 8, ptr %5) #13
  %7 = load i64, ptr %4, align 8, !tbaa !160
  %8 = srem i64 %7, 300
  store i64 %8, ptr %5, align 8, !tbaa !160
  call void @llvm.lifetime.start.p0(i64 8, ptr %6) #13
  %9 = load i64, ptr %4, align 8, !tbaa !160
  %10 = sdiv i64 %9, 300
  store i64 %10, ptr %6, align 8, !tbaa !160
  %11 = load i64, ptr %6, align 8, !tbaa !160
  %12 = ashr i64 %11, 25
  %13 = trunc i64 %12 to i8
  %14 = load ptr, ptr %3, align 8, !tbaa !13
  %15 = getelementptr inbounds nuw i8, ptr %14, i32 1
  store ptr %15, ptr %3, align 8, !tbaa !13
  store i8 %13, ptr %14, align 1, !tbaa !23
  %16 = load i64, ptr %6, align 8, !tbaa !160
  %17 = ashr i64 %16, 17
  %18 = trunc i64 %17 to i8
  %19 = load ptr, ptr %3, align 8, !tbaa !13
  %20 = getelementptr inbounds nuw i8, ptr %19, i32 1
  store ptr %20, ptr %3, align 8, !tbaa !13
  store i8 %18, ptr %19, align 1, !tbaa !23
  %21 = load i64, ptr %6, align 8, !tbaa !160
  %22 = ashr i64 %21, 9
  %23 = trunc i64 %22 to i8
  %24 = load ptr, ptr %3, align 8, !tbaa !13
  %25 = getelementptr inbounds nuw i8, ptr %24, i32 1
  store ptr %25, ptr %3, align 8, !tbaa !13
  store i8 %23, ptr %24, align 1, !tbaa !23
  %26 = load i64, ptr %6, align 8, !tbaa !160
  %27 = ashr i64 %26, 1
  %28 = trunc i64 %27 to i8
  %29 = load ptr, ptr %3, align 8, !tbaa !13
  %30 = getelementptr inbounds nuw i8, ptr %29, i32 1
  store ptr %30, ptr %3, align 8, !tbaa !13
  store i8 %28, ptr %29, align 1, !tbaa !23
  %31 = load i64, ptr %6, align 8, !tbaa !160
  %32 = shl i64 %31, 7
  %33 = load i64, ptr %5, align 8, !tbaa !160
  %34 = ashr i64 %33, 8
  %35 = or i64 %32, %34
  %36 = or i64 %35, 126
  %37 = trunc i64 %36 to i8
  %38 = load ptr, ptr %3, align 8, !tbaa !13
  %39 = getelementptr inbounds nuw i8, ptr %38, i32 1
  store ptr %39, ptr %3, align 8, !tbaa !13
  store i8 %37, ptr %38, align 1, !tbaa !23
  %40 = load i64, ptr %5, align 8, !tbaa !160
  %41 = trunc i64 %40 to i8
  %42 = load ptr, ptr %3, align 8, !tbaa !13
  %43 = getelementptr inbounds nuw i8, ptr %42, i32 1
  store ptr %43, ptr %3, align 8, !tbaa !13
  store i8 %41, ptr %42, align 1, !tbaa !23
  call void @llvm.lifetime.end.p0(i64 8, ptr %6) #13
  call void @llvm.lifetime.end.p0(i64 8, ptr %5) #13
  ret i32 6
}

; Function Attrs: nounwind uwtable
define internal i64 @get_pcr(ptr noundef %0) #0 {
  %2 = alloca ptr, align 8
  store ptr %0, ptr %2, align 8, !tbaa !42
  %3 = load ptr, ptr %2, align 8, !tbaa !42
  %4 = getelementptr inbounds nuw %struct.MpegTSWrite, ptr %3, i32 0, i32 15
  %5 = load i64, ptr %4, align 8, !tbaa !195
  %6 = add nsw i64 %5, 11
  %7 = load ptr, ptr %2, align 8, !tbaa !42
  %8 = getelementptr inbounds nuw %struct.MpegTSWrite, ptr %7, i32 0, i32 13
  %9 = load i32, ptr %8, align 8, !tbaa !142
  %10 = sext i32 %9 to i64
  %11 = call i64 @av_rescale(i64 noundef %6, i64 noundef 216000000, i64 noundef %10) #12
  %12 = load ptr, ptr %2, align 8, !tbaa !42
  %13 = getelementptr inbounds nuw %struct.MpegTSWrite, ptr %12, i32 0, i32 10
  %14 = load i64, ptr %13, align 8, !tbaa !128
  %15 = add nsw i64 %11, %14
  ret i64 %15
}

; Function Attrs: nounwind uwtable
define internal void @mpegts_insert_pcr_only(ptr noundef %0, ptr noundef %1) #0 {
  %3 = alloca ptr, align 8
  %4 = alloca ptr, align 8
  %5 = alloca ptr, align 8
  %6 = alloca ptr, align 8
  %7 = alloca ptr, align 8
  %8 = alloca [188 x i8], align 16
  store ptr %0, ptr %3, align 8, !tbaa !4
  store ptr %1, ptr %4, align 8, !tbaa !9
  call void @llvm.lifetime.start.p0(i64 8, ptr %5) #13
  %9 = load ptr, ptr %3, align 8, !tbaa !4
  %10 = getelementptr inbounds nuw %struct.AVFormatContext, ptr %9, i32 0, i32 3
  %11 = load ptr, ptr %10, align 8, !tbaa !41
  store ptr %11, ptr %5, align 8, !tbaa !42
  call void @llvm.lifetime.start.p0(i64 8, ptr %6) #13
  %12 = load ptr, ptr %4, align 8, !tbaa !9
  %13 = getelementptr inbounds nuw %struct.AVStream, ptr %12, i32 0, i32 4
  %14 = load ptr, ptr %13, align 8, !tbaa !94
  store ptr %14, ptr %6, align 8, !tbaa !92
  call void @llvm.lifetime.start.p0(i64 8, ptr %7) #13
  call void @llvm.lifetime.start.p0(i64 188, ptr %8) #13
  %15 = getelementptr inbounds [188 x i8], ptr %8, i64 0, i64 0
  store ptr %15, ptr %7, align 8, !tbaa !13
  %16 = load ptr, ptr %7, align 8, !tbaa !13
  %17 = getelementptr inbounds nuw i8, ptr %16, i32 1
  store ptr %17, ptr %7, align 8, !tbaa !13
  store i8 71, ptr %16, align 1, !tbaa !23
  %18 = load ptr, ptr %6, align 8, !tbaa !92
  %19 = getelementptr inbounds nuw %struct.MpegTSWriteStream, ptr %18, i32 0, i32 0
  %20 = load i32, ptr %19, align 8, !tbaa !103
  %21 = ashr i32 %20, 8
  %22 = trunc i32 %21 to i8
  %23 = load ptr, ptr %7, align 8, !tbaa !13
  %24 = getelementptr inbounds nuw i8, ptr %23, i32 1
  store ptr %24, ptr %7, align 8, !tbaa !13
  store i8 %22, ptr %23, align 1, !tbaa !23
  %25 = load ptr, ptr %6, align 8, !tbaa !92
  %26 = getelementptr inbounds nuw %struct.MpegTSWriteStream, ptr %25, i32 0, i32 0
  %27 = load i32, ptr %26, align 8, !tbaa !103
  %28 = trunc i32 %27 to i8
  %29 = load ptr, ptr %7, align 8, !tbaa !13
  %30 = getelementptr inbounds nuw i8, ptr %29, i32 1
  store ptr %30, ptr %7, align 8, !tbaa !13
  store i8 %28, ptr %29, align 1, !tbaa !23
  %31 = load ptr, ptr %6, align 8, !tbaa !92
  %32 = getelementptr inbounds nuw %struct.MpegTSWriteStream, ptr %31, i32 0, i32 1
  %33 = load i32, ptr %32, align 4, !tbaa !117
  %34 = or i32 32, %33
  %35 = trunc i32 %34 to i8
  %36 = load ptr, ptr %7, align 8, !tbaa !13
  %37 = getelementptr inbounds nuw i8, ptr %36, i32 1
  store ptr %37, ptr %7, align 8, !tbaa !13
  store i8 %35, ptr %36, align 1, !tbaa !23
  %38 = load ptr, ptr %7, align 8, !tbaa !13
  %39 = getelementptr inbounds nuw i8, ptr %38, i32 1
  store ptr %39, ptr %7, align 8, !tbaa !13
  store i8 -73, ptr %38, align 1, !tbaa !23
  %40 = load ptr, ptr %7, align 8, !tbaa !13
  %41 = getelementptr inbounds nuw i8, ptr %40, i32 1
  store ptr %41, ptr %7, align 8, !tbaa !13
  store i8 16, ptr %40, align 1, !tbaa !23
  %42 = load ptr, ptr %6, align 8, !tbaa !92
  %43 = getelementptr inbounds nuw %struct.MpegTSWriteStream, ptr %42, i32 0, i32 2
  %44 = load i32, ptr %43, align 8, !tbaa !118
  %45 = icmp ne i32 %44, 0
  br i1 %45, label %46, label %55

46:                                               ; preds = %2
  %47 = load ptr, ptr %7, align 8, !tbaa !13
  %48 = getelementptr inbounds i8, ptr %47, i64 -1
  %49 = load i8, ptr %48, align 1, !tbaa !23
  %50 = zext i8 %49 to i32
  %51 = or i32 %50, 128
  %52 = trunc i32 %51 to i8
  store i8 %52, ptr %48, align 1, !tbaa !23
  %53 = load ptr, ptr %6, align 8, !tbaa !92
  %54 = getelementptr inbounds nuw %struct.MpegTSWriteStream, ptr %53, i32 0, i32 2
  store i32 0, ptr %54, align 8, !tbaa !118
  br label %55

55:                                               ; preds = %46, %2
  %56 = load ptr, ptr %7, align 8, !tbaa !13
  %57 = load ptr, ptr %5, align 8, !tbaa !42
  %58 = call i64 @get_pcr(ptr noundef %57)
  %59 = call i32 @write_pcr_bits(ptr noundef %56, i64 noundef %58)
  %60 = load ptr, ptr %7, align 8, !tbaa !13
  %61 = sext i32 %59 to i64
  %62 = getelementptr inbounds i8, ptr %60, i64 %61
  store ptr %62, ptr %7, align 8, !tbaa !13
  %63 = load ptr, ptr %7, align 8, !tbaa !13
  %64 = load ptr, ptr %7, align 8, !tbaa !13
  %65 = getelementptr inbounds [188 x i8], ptr %8, i64 0, i64 0
  %66 = ptrtoint ptr %64 to i64
  %67 = ptrtoint ptr %65 to i64
  %68 = sub i64 %66, %67
  %69 = sub nsw i64 188, %68
  call void @llvm.memset.p0.i64(ptr align 1 %63, i8 -1, i64 %69, i1 false)
  %70 = load ptr, ptr %3, align 8, !tbaa !4
  %71 = getelementptr inbounds [188 x i8], ptr %8, i64 0, i64 0
  call void @write_packet(ptr noundef %70, ptr noundef %71)
  call void @llvm.lifetime.end.p0(i64 188, ptr %8) #13
  call void @llvm.lifetime.end.p0(i64 8, ptr %7) #13
  call void @llvm.lifetime.end.p0(i64 8, ptr %6) #13
  call void @llvm.lifetime.end.p0(i64 8, ptr %5) #13
  ret void
}