; Function Attrs: nounwind uwtable
define internal fastcc void @mpegts_insert_pcr_only(ptr noundef readonly captures(none) %0, ptr captures(none) %.24.val) unnamed_addr #0 {
  %2 = alloca i32, align 4
  %3 = alloca [188 x i8], align 16
  %4 = getelementptr inbounds nuw i8, ptr %0, i64 24
  %5 = load ptr, ptr %4, align 8, !tbaa !38
  call void @llvm.lifetime.start.p0(i64 188, ptr nonnull %3) #12
  %6 = getelementptr inbounds nuw i8, ptr %3, i64 1
  store i8 71, ptr %3, align 16, !tbaa !21
  %7 = load i32, ptr %.24.val, align 8, !tbaa !136
  %8 = lshr i32 %7, 8
  %9 = trunc i32 %8 to i8
  %10 = getelementptr inbounds nuw i8, ptr %3, i64 2
  store i8 %9, ptr %6, align 1, !tbaa !21
  %11 = trunc i32 %7 to i8
  %12 = getelementptr inbounds nuw i8, ptr %3, i64 3
  store i8 %11, ptr %10, align 2, !tbaa !21
  %13 = getelementptr inbounds nuw i8, ptr %.24.val, i64 4
  %14 = load i32, ptr %13, align 4, !tbaa !147
  %15 = trunc i32 %14 to i8
  %16 = or i8 %15, 32
  %17 = getelementptr inbounds nuw i8, ptr %3, i64 4
  store i8 %16, ptr %12, align 1, !tbaa !21
  %18 = getelementptr inbounds nuw i8, ptr %3, i64 5
  store i8 -73, ptr %17, align 4, !tbaa !21
  store i8 16, ptr %18, align 1, !tbaa !21
  %19 = getelementptr inbounds nuw i8, ptr %.24.val, i64 8
  %20 = load i32, ptr %19, align 8, !tbaa !148
  %.not = icmp eq i32 %20, 0
  br i1 %.not, label %22, label %21

21:                                               ; preds = %1
  store i8 -112, ptr %18, align 1, !tbaa !21
  store i32 0, ptr %19, align 8, !tbaa !148
  br label %22

22:                                               ; preds = %21, %1
  %23 = getelementptr inbounds nuw i8, ptr %3, i64 6
  %24 = getelementptr inbounds nuw i8, ptr %5, i64 184
  %25 = load i64, ptr %24, align 8, !tbaa !185
  %26 = add nsw i64 %25, 11
  %27 = getelementptr inbounds nuw i8, ptr %5, i64 176
  %28 = load i32, ptr %27, align 8, !tbaa !156
  %29 = sext i32 %28 to i64
  %30 = tail call i64 @av_rescale(i64 noundef %26, i64 noundef 216000000, i64 noundef %29) #13
  %31 = getelementptr inbounds nuw i8, ptr %5, i64 152
  %32 = load i64, ptr %31, align 8, !tbaa !48
  %33 = add nsw i64 %32, %30
  %34 = srem i64 %33, 300
  %35 = sdiv i64 %33, 300
  %36 = lshr i64 %35, 25
  %37 = trunc i64 %36 to i8
  %38 = getelementptr inbounds nuw i8, ptr %3, i64 7
  store i8 %37, ptr %23, align 2, !tbaa !21
  %39 = lshr i64 %35, 17
  %40 = trunc i64 %39 to i8
  %41 = getelementptr inbounds nuw i8, ptr %3, i64 8
  store i8 %40, ptr %38, align 1, !tbaa !21
  %42 = lshr i64 %35, 9
  %43 = trunc i64 %42 to i8
  %44 = getelementptr inbounds nuw i8, ptr %3, i64 9
  store i8 %43, ptr %41, align 8, !tbaa !21
  %45 = lshr i64 %35, 1
  %46 = trunc i64 %45 to i8
  %47 = getelementptr inbounds nuw i8, ptr %3, i64 10
  store i8 %46, ptr %44, align 1, !tbaa !21
  %48 = shl nsw i64 %35, 7
  %49 = lshr i64 %34, 8
  %50 = or i64 %48, %49
  %51 = trunc i64 %50 to i8
  %52 = or i8 %51, 126
  %53 = getelementptr inbounds nuw i8, ptr %3, i64 11
  store i8 %52, ptr %47, align 2, !tbaa !21
  %54 = trunc i64 %34 to i8
  store i8 %54, ptr %53, align 1, !tbaa !21
  %55 = getelementptr inbounds nuw i8, ptr %3, i64 12
  call void @llvm.memset.p0.i64(ptr noundef nonnull align 4 dereferenceable(176) %55, i8 -1, i64 176, i1 false)
  %56 = getelementptr inbounds nuw i8, ptr %5, i64 216
  %57 = load i32, ptr %56, align 8, !tbaa !88
  %.not.i = icmp eq i32 %57, 0
  br i1 %.not.i, label %write_packet.exit, label %58

58:                                               ; preds = %22
  call void @llvm.lifetime.start.p0(i64 4, ptr nonnull %2) #12
  %59 = srem i64 %33, 1073741823
  %60 = trunc nsw i64 %59 to i32
  %61 = tail call i32 @llvm.bswap.i32(i32 %60)
  store i32 %61, ptr %2, align 4, !tbaa !58
  %62 = getelementptr inbounds nuw i8, ptr %0, i64 32
  %63 = load ptr, ptr %62, align 8, !tbaa !66
  call void @avio_write(ptr noundef %63, ptr noundef nonnull %2, i32 noundef 4) #12
  call void @llvm.lifetime.end.p0(i64 4, ptr nonnull %2) #12
  br label %write_packet.exit

write_packet.exit:                                ; preds = %22, %58
  %64 = getelementptr inbounds nuw i8, ptr %0, i64 32
  %65 = load ptr, ptr %64, align 8, !tbaa !66
  call void @avio_write(ptr noundef %65, ptr noundef nonnull %3, i32 noundef 188) #12
  %66 = load i64, ptr %24, align 8, !tbaa !185
  %67 = add nsw i64 %66, 188
  store i64 %67, ptr %24, align 8, !tbaa !185
  call void @llvm.lifetime.end.p0(i64 188, ptr nonnull %3) #12
  ret void
}